ccopy_reg
_reconstructor
p1
(c__main__
Pos
p2
c__builtin__
tuple
p3
(S'359586015829802'
p4
F22.574449999999999
F113.90548
F0.0491744
I-1
I0
I1
ttRp5
ccollections
OrderedDict
p6
((lp7
(lp8
S'imei'
p9
ag4
aa(lp10
S'lat'
p11
aF22.574449999999999
aa(lp12
S'lon'
p13
aF113.90548
aa(lp14
S'spd'
p15
aF0.0491744
aa(lp16
S'bearing'
p17
aI-1
aa(lp18
S'acc'
p19
aI0
aa(lp20
S'idx'
p21
aI1
aatRp22
b.